target datalayout = "e-m:e-p270:32:32-p271:32:32-p272:64:64-i64:64-i128:128-f80:128-n8:16:32:64-S128"
target triple = "x86_64-unknown-linux-gnu"

%"class.std::__cxx11::basic_string" = type { %"struct.std::__cxx11::basic_string<char>::_Alloc_hider", i64, %union.anon }
%"struct.std::__cxx11::basic_string<char>::_Alloc_hider" = type { ptr }
%union.anon = type { i64, [8 x i8] }
%"class.cvc5::internal::NodeTemplate.1" = type { ptr }
%"class.cvc5::internal::NodeTemplate" = type { ptr }
%"class.cvc5::internal::TypeCheckingExceptionPrivate" = type { %"class.cvc5::internal::Exception", ptr }
%"class.cvc5::internal::Exception" = type { %"class.std::exception", %"class.std::__cxx11::basic_string" }
%"class.std::exception" = type { ptr }

@.str.8 = private unnamed_addr constant [29 x i8] c"Error during type checking: \00", align 1
@.str.9 = private unnamed_addr constant [27 x i8] c"The ill-typed expression: \00", align 1

; Function Attrs: mustprogress nounwind uwtable
define linkonce_odr hidden void @_ZNK4cvc58internal12NodeTemplateILb0EE21assertTNodeNotExpiredEv(ptr noundef nonnull align 8 dereferenceable(8) %this) #5 comdat align 2 {
entry:
  %this.addr = alloca ptr, align 8
  store ptr %this, ptr %this.addr, align 8
  ret void
}

; Function Attrs: mustprogress uwtable
define linkonce_odr hidden void @_ZNK4cvc58internal12NodeTemplateILb0EE8toStreamERSo(ptr noundef nonnull align 8 dereferenceable(8) %this, ptr noundef nonnull align 8 dereferenceable(8) %out) #4 comdat align 2 {
entry:
  %this.addr = alloca ptr, align 8
  %out.addr = alloca ptr, align 8
  store ptr %this, ptr %this.addr, align 8
  store ptr %out, ptr %out.addr, align 8
  %this1 = load ptr, ptr %this.addr, align 8
  call void @_ZNK4cvc58internal12NodeTemplateILb0EE21assertTNodeNotExpiredEv(ptr noundef nonnull align 8 dereferenceable(8) %this1)
  %d_nv = getelementptr inbounds %"class.cvc5::internal::NodeTemplate.1", ptr %this1, i32 0, i32 0
  %0 = load ptr, ptr %d_nv, align 8
  %1 = load ptr, ptr %out.addr, align 8
  call void @_ZNK4cvc58internal4expr9NodeValue8toStreamERSo(ptr noundef nonnull align 8 dereferenceable(16) %0, ptr noundef nonnull align 8 dereferenceable(8) %1)
  ret void
}

; Function Attrs: mustprogress nounwind uwtable
define linkonce_odr hidden void @_ZN4cvc58internal12NodeTemplateILb0EED2Ev(ptr noundef nonnull align 8 dereferenceable(8) %this) unnamed_addr #5 comdat align 2 {
entry:
  %this.addr = alloca ptr, align 8
  store ptr %this, ptr %this.addr, align 8
  ret void
}

; Function Attrs: mustprogress uwtable
define linkonce_odr hidden noundef nonnull align 8 dereferenceable(8) ptr @_ZN4cvc58internallsERSoNS0_12NodeTemplateILb0EEE(ptr noundef nonnull align 8 dereferenceable(8) %out, ptr noundef %n) #4 comdat {
entry:
  %out.addr = alloca ptr, align 8
  %n.indirect_addr = alloca ptr, align 8
  store ptr %out, ptr %out.addr, align 8
  store ptr %n, ptr %n.indirect_addr, align 8
  %0 = load ptr, ptr %out.addr, align 8
  call void @_ZNK4cvc58internal12NodeTemplateILb0EE8toStreamERSo(ptr noundef nonnull align 8 dereferenceable(8) %n, ptr noundef nonnull align 8 dereferenceable(8) %0)
  %1 = load ptr, ptr %out.addr, align 8
  ret ptr %1
}

; Function Attrs: mustprogress nounwind uwtable
define linkonce_odr hidden void @_ZN4cvc58internal12NodeTemplateILb0EEC2ERKNS1_ILb1EEE(ptr noundef nonnull align 8 dereferenceable(8) %this, ptr noundef nonnull align 8 dereferenceable(8) %e) unnamed_addr #5 comdat align 2 {
entry:
  %this.addr = alloca ptr, align 8
  %e.addr = alloca ptr, align 8
  store ptr %this, ptr %this.addr, align 8
  store ptr %e, ptr %e.addr, align 8
  %this1 = load ptr, ptr %this.addr, align 8
  %0 = load ptr, ptr %e.addr, align 8
  %d_nv = getelementptr inbounds %"class.cvc5::internal::NodeTemplate", ptr %0, i32 0, i32 0
  %1 = load ptr, ptr %d_nv, align 8
  %d_nv2 = getelementptr inbounds %"class.cvc5::internal::NodeTemplate.1", ptr %this1, i32 0, i32 0
  store ptr %1, ptr %d_nv2, align 8
  ret void
}

; Function Attrs: mustprogress uwtable
define hidden void @_ZNK4cvc58internal28TypeCheckingExceptionPrivate8toStreamERSo(ptr noundef nonnull align 8 dereferenceable(48) %this, ptr noundef nonnull align 8 dereferenceable(8) %os) unnamed_addr #4 align 2 personality ptr @__gxx_personality_v0 {
entry:
  %this.addr = alloca ptr, align 8
  %os.addr = alloca ptr, align 8
  %agg.tmp = alloca %"class.cvc5::internal::NodeTemplate.1", align 8
  %exn.slot = alloca ptr, align 8
  %ehselector.slot = alloca i32, align 4
  %agg.tmp9 = alloca %"class.cvc5::internal::NodeTemplate.1", align 8
  store ptr %this, ptr %this.addr, align 8
  store ptr %os, ptr %os.addr, align 8
  %this1 = load ptr, ptr %this.addr, align 8
  %0 = load ptr, ptr %os.addr, align 8
  %call = call noundef nonnull align 8 dereferenceable(8) ptr @_ZStlsISt11char_traitsIcEERSt13basic_ostreamIcT_ES5_PKc(ptr noundef nonnull align 8 dereferenceable(8) %0, ptr noundef @.str.8)
  %d_msg = getelementptr inbounds %"class.cvc5::internal::Exception", ptr %this1, i32 0, i32 1
  %call2 = call noundef nonnull align 8 dereferenceable(8) ptr @_ZStlsIcSt11char_traitsIcESaIcEERSt13basic_ostreamIT_T0_ES7_RKNSt7__cxx1112basic_stringIS4_S5_T1_EE(ptr noundef nonnull align 8 dereferenceable(8) %call, ptr noundef nonnull align 8 dereferenceable(32) %d_msg)
  %call3 = call noundef nonnull align 8 dereferenceable(8) ptr @_ZNSolsEPFRSoS_E(ptr noundef nonnull align 8 dereferenceable(8) %call2, ptr noundef @_ZSt4endlIcSt11char_traitsIcEERSt13basic_ostreamIT_T0_ES6_)
  %d_node = getelementptr inbounds %"class.cvc5::internal::TypeCheckingExceptionPrivate", ptr %this1, i32 0, i32 1
  %1 = load ptr, ptr %d_node, align 8
  call void @_ZN4cvc58internal12NodeTemplateILb0EEC2ERKNS1_ILb1EEE(ptr noundef nonnull align 8 dereferenceable(8) %agg.tmp, ptr noundef nonnull align 8 dereferenceable(8) %1)
  %call4 = invoke noundef nonnull align 8 dereferenceable(8) ptr @_ZN4cvc58internallsERSoNS0_12NodeTemplateILb0EEE(ptr noundef nonnull align 8 dereferenceable(8) %call3, ptr noundef %agg.tmp)
          to label %invoke.cont unwind label %lpad

invoke.cont:                                      ; preds = %entry
  %call6 = invoke noundef nonnull align 8 dereferenceable(8) ptr @_ZNSolsEPFRSoS_E(ptr noundef nonnull align 8 dereferenceable(8) %call4, ptr noundef @_ZSt4endlIcSt11char_traitsIcEERSt13basic_ostreamIT_T0_ES6_)
          to label %invoke.cont5 unwind label %lpad

invoke.cont5:                                     ; preds = %invoke.cont
  %call8 = invoke noundef nonnull align 8 dereferenceable(8) ptr @_ZStlsISt11char_traitsIcEERSt13basic_ostreamIcT_ES5_PKc(ptr noundef nonnull align 8 dereferenceable(8) %call6, ptr noundef @.str.9)
          to label %invoke.cont7 unwind label %lpad

invoke.cont7:                                     ; preds = %invoke.cont5
  %d_node10 = getelementptr inbounds %"class.cvc5::internal::TypeCheckingExceptionPrivate", ptr %this1, i32 0, i32 1
  %2 = load ptr, ptr %d_node10, align 8
  invoke void @_ZN4cvc58internal12NodeTemplateILb0EEC2ERKNS1_ILb1EEE(ptr noundef nonnull align 8 dereferenceable(8) %agg.tmp9, ptr noundef nonnull align 8 dereferenceable(8) %2)
          to label %invoke.cont11 unwind label %lpad

invoke.cont11:                                    ; preds = %invoke.cont7
  %call14 = invoke noundef nonnull align 8 dereferenceable(8) ptr @_ZN4cvc58internallsERSoNS0_12NodeTemplateILb0EEE(ptr noundef nonnull align 8 dereferenceable(8) %call8, ptr noundef %agg.tmp9)
          to label %invoke.cont13 unwind label %lpad12

invoke.cont13:                                    ; preds = %invoke.cont11
  call void @_ZN4cvc58internal12NodeTemplateILb0EED2Ev(ptr noundef nonnull align 8 dereferenceable(8) %agg.tmp9) #3
  call void @_ZN4cvc58internal12NodeTemplateILb0EED2Ev(ptr noundef nonnull align 8 dereferenceable(8) %agg.tmp) #3
  ret void

lpad:                                             ; preds = %invoke.cont7, %invoke.cont5, %invoke.cont, %entry
  %3 = landingpad { ptr, i32 }
          cleanup
  %4 = extractvalue { ptr, i32 } %3, 0
  store ptr %4, ptr %exn.slot, align 8
  %5 = extractvalue { ptr, i32 } %3, 1
  store i32 %5, ptr %ehselector.slot, align 4
  br label %ehcleanup

lpad12:                                           ; preds = %invoke.cont11
  %6 = landingpad { ptr, i32 }
          cleanup
  %7 = extractvalue { ptr, i32 } %6, 0
  store ptr %7, ptr %exn.slot, align 8
  %8 = extractvalue { ptr, i32 } %6, 1
  store i32 %8, ptr %ehselector.slot, align 4
  call void @_ZN4cvc58internal12NodeTemplateILb0EED2Ev(ptr noundef nonnull align 8 dereferenceable(8) %agg.tmp9) #3
  br label %ehcleanup

ehcleanup:                                        ; preds = %lpad12, %lpad
  call void @_ZN4cvc58internal12NodeTemplateILb0EED2Ev(ptr noundef nonnull align 8 dereferenceable(8) %agg.tmp) #3
  br label %eh.resume

eh.resume:                                        ; preds = %ehcleanup
  %exn = load ptr, ptr %exn.slot, align 8
  %sel = load i32, ptr %ehselector.slot, align 4
  %lpad.val = insertvalue { ptr, i32 } poison, ptr %exn, 0
  %lpad.val15 = insertvalue { ptr, i32 } %lpad.val, i32 %sel, 1
  resume { ptr, i32 } %lpad.val15
}